target datalayout = "e-m:e-p270:32:32-p271:32:32-p272:64:64-i64:64-i128:128-f80:128-n8:16:32:64-S128"
target triple = "x86_64-pc-linux-gnu"

%class.anon.745 = type { i8 }

@_ZZL21DOCTEST_ANON_FUNC_150vE21largeAllocationToFail = internal global i64 0, align 8
@_ZZL21DOCTEST_ANON_FUNC_150vE20largeAllocationCount = internal global i64 0, align 8

; Function Attrs: mustprogress nounwind uwtable
define internal noundef ptr @"_ZZL21DOCTEST_ANON_FUNC_150vENK3$_0clEPvS0_mm"(ptr noundef nonnull align 1 dereferenceable(1) %0, ptr noundef %1, ptr noundef %2, i64 noundef %3, i64 noundef %4) #1 align 2 {
  %6 = alloca ptr, align 8
  %7 = alloca ptr, align 8
  %8 = alloca ptr, align 8
  %9 = alloca ptr, align 8
  %10 = alloca i64, align 8
  %11 = alloca i64, align 8
  store ptr %0, ptr %7, align 8
  store ptr %1, ptr %8, align 8
  store ptr %2, ptr %9, align 8
  store i64 %3, ptr %10, align 8
  store i64 %4, ptr %11, align 8
  %12 = load i64, ptr %11, align 8
  %13 = icmp eq i64 %12, 0
  br i1 %13, label %14, label %16

14:                                               ; preds = %5
  %15 = load ptr, ptr %9, align 8
  call void @free(ptr noundef %15) #16
  store ptr null, ptr %6, align 8
  br label %34

16:                                               ; preds = %5
  %17 = load i64, ptr %11, align 8
  %18 = icmp ugt i64 %17, 32768
  br i1 %18, label %19, label %30

19:                                               ; preds = %16
  %20 = load i64, ptr @_ZZL21DOCTEST_ANON_FUNC_150vE20largeAllocationCount, align 8
  %21 = load i64, ptr @_ZZL21DOCTEST_ANON_FUNC_150vE21largeAllocationToFail, align 8
  %22 = icmp eq i64 %20, %21
  br i1 %22, label %23, label %24

23:                                               ; preds = %19
  store ptr null, ptr %6, align 8
  br label %34

24:                                               ; preds = %19
  %25 = load i64, ptr @_ZZL21DOCTEST_ANON_FUNC_150vE20largeAllocationCount, align 8
  %26 = add i64 %25, 1
  store i64 %26, ptr @_ZZL21DOCTEST_ANON_FUNC_150vE20largeAllocationCount, align 8
  %27 = load ptr, ptr %9, align 8
  %28 = load i64, ptr %11, align 8
  %29 = call ptr @realloc(ptr noundef %27, i64 noundef %28) #23
  store ptr %29, ptr %6, align 8
  br label %34

30:                                               ; preds = %16
  %31 = load ptr, ptr %9, align 8
  %32 = load i64, ptr %11, align 8
  %33 = call ptr @realloc(ptr noundef %31, i64 noundef %32) #23
  store ptr %33, ptr %6, align 8
  br label %34

34:                                               ; preds = %30, %24, %23, %14
  %35 = load ptr, ptr %6, align 8
  ret ptr %35
}

; Function Attrs: mustprogress uwtable
define internal noundef ptr @"_ZZL21DOCTEST_ANON_FUNC_150vEN3$_08__invokeEPvS0_mm"(ptr noundef %0, ptr noundef %1, i64 noundef %2, i64 noundef %3) #4 align 2 {
  %5 = alloca ptr, align 8
  %6 = alloca ptr, align 8
  %7 = alloca i64, align 8
  %8 = alloca i64, align 8
  %9 = alloca %class.anon.745, align 1
  store ptr %0, ptr %5, align 8
  store ptr %1, ptr %6, align 8
  store i64 %2, ptr %7, align 8
  store i64 %3, ptr %8, align 8
  %10 = load ptr, ptr %5, align 8
  %11 = load ptr, ptr %6, align 8
  %12 = load i64, ptr %7, align 8
  %13 = load i64, ptr %8, align 8
  %14 = call noundef ptr @"_ZZL21DOCTEST_ANON_FUNC_150vENK3$_0clEPvS0_mm"(ptr noundef nonnull align 1 dereferenceable(1) %9, ptr noundef %10, ptr noundef %11, i64 noundef %12, i64 noundef %13)
  ret ptr %14
}