; Function Attrs: mustprogress nounwind willreturn uwtable
define internal noalias noundef ptr @"_ZZL21DOCTEST_ANON_FUNC_150vEN3$_08__invokeEPvS0_mm"(ptr nocapture readnone %0, ptr nocapture noundef %1, i64 %2, i64 noundef %3) #26 align 2 {
  %5 = icmp eq i64 %3, 0
  br i1 %5, label %6, label %7

6:                                                ; preds = %4
  tail call void @free(ptr noundef %1) #35
  br label %"_ZZL21DOCTEST_ANON_FUNC_150vENK3$_0clEPvS0_mm.exit"

7:                                                ; preds = %4
  %8 = icmp ugt i64 %3, 32768
  br i1 %8, label %9, label %16

9:                                                ; preds = %7
  %10 = load i64, ptr @_ZZL21DOCTEST_ANON_FUNC_150vE20largeAllocationCount, align 8
  %11 = load i64, ptr @_ZZL21DOCTEST_ANON_FUNC_150vE21largeAllocationToFail, align 8
  %12 = icmp eq i64 %10, %11
  br i1 %12, label %"_ZZL21DOCTEST_ANON_FUNC_150vENK3$_0clEPvS0_mm.exit", label %13

13:                                               ; preds = %9
  %14 = add i64 %10, 1
  store i64 %14, ptr @_ZZL21DOCTEST_ANON_FUNC_150vE20largeAllocationCount, align 8
  %15 = tail call ptr @realloc(ptr noundef %1, i64 noundef %3) #39
  br label %"_ZZL21DOCTEST_ANON_FUNC_150vENK3$_0clEPvS0_mm.exit"

16:                                               ; preds = %7
  %17 = tail call ptr @realloc(ptr noundef %1, i64 noundef %3) #39
  br label %"_ZZL21DOCTEST_ANON_FUNC_150vENK3$_0clEPvS0_mm.exit"

"_ZZL21DOCTEST_ANON_FUNC_150vENK3$_0clEPvS0_mm.exit": ; preds = %6, %9, %13, %16
  %.0.i = phi ptr [ null, %6 ], [ %15, %13 ], [ %17, %16 ], [ null, %9 ]
  ret ptr %.0.i
}